target datalayout = "e-m:e-p270:32:32-p271:32:32-p272:64:64-i64:64-i128:128-f80:128-n8:16:32:64-S128"
target triple = "x86_64-pc-linux-gnu"

%struct._zend_refcounted_h = type { i32, %union.anon.3 }
%union.anon.3 = type { i32 }
%struct._zend_string = type { %struct._zend_refcounted_h, i64, i64, [1 x i8] }

@.str.73 = private unnamed_addr constant [10 x i8] c"ref.iconv\00", align 1
@.str.75 = private unnamed_addr constant [43 x i8] c"Use of iconv.output_encoding is deprecated\00", align 1

; Function Attrs: nounwind uwtable
define internal i32 @OnUpdateOutputEncoding(ptr noundef %0, ptr noundef %1, ptr noundef %2, ptr noundef %3, ptr noundef %4, i32 noundef %5) #0 {
  %7 = alloca i32, align 4
  %8 = alloca ptr, align 8
  %9 = alloca ptr, align 8
  %10 = alloca ptr, align 8
  %11 = alloca ptr, align 8
  %12 = alloca ptr, align 8
  %13 = alloca i32, align 4
  store ptr %0, ptr %8, align 8, !tbaa !74
  store ptr %1, ptr %9, align 8, !tbaa !28
  store ptr %2, ptr %10, align 8, !tbaa !30
  store ptr %3, ptr %11, align 8, !tbaa !30
  store ptr %4, ptr %12, align 8, !tbaa !30
  store i32 %5, ptr %13, align 4, !tbaa !4
  %14 = load ptr, ptr %9, align 8, !tbaa !28
  %15 = getelementptr inbounds nuw %struct._zend_string, ptr %14, i32 0, i32 2
  %16 = load i64, ptr %15, align 8, !tbaa !31
  %17 = icmp uge i64 %16, 64
  br i1 %17, label %18, label %19

18:                                               ; preds = %6
  store i32 -1, ptr %7, align 4
  br label %32

19:                                               ; preds = %6
  %20 = load i32, ptr %13, align 4, !tbaa !4
  %21 = and i32 %20, 20
  %22 = icmp ne i32 %21, 0
  br i1 %22, label %23, label %24

23:                                               ; preds = %19
  call void (ptr, i32, ptr, ...) @php_error_docref(ptr noundef @.str.73, i32 noundef 8192, ptr noundef @.str.75)
  br label %24

24:                                               ; preds = %23, %19
  %25 = load ptr, ptr %8, align 8, !tbaa !74
  %26 = load ptr, ptr %9, align 8, !tbaa !28
  %27 = load ptr, ptr %10, align 8, !tbaa !30
  %28 = load ptr, ptr %11, align 8, !tbaa !30
  %29 = load ptr, ptr %12, align 8, !tbaa !30
  %30 = load i32, ptr %13, align 4, !tbaa !4
  %31 = call i32 @OnUpdateString(ptr noundef %25, ptr noundef %26, ptr noundef %27, ptr noundef %28, ptr noundef %29, i32 noundef %30)
  store i32 0, ptr %7, align 4
  br label %32

32:                                               ; preds = %24, %18
  %33 = load i32, ptr %7, align 4
  ret i32 %33
}