; Function Attrs: nounwind uwtable
define internal range(i32 -1, 1) i32 @OnUpdateOutputEncoding(ptr noundef %0, ptr noundef %1, ptr noundef %2, ptr noundef %3, ptr noundef %4, i32 noundef %5) #0 {
  %7 = getelementptr inbounds nuw i8, ptr %1, i64 16
  %8 = load i64, ptr %7, align 8, !tbaa !20
  %9 = icmp ugt i64 %8, 63
  br i1 %9, label %15, label %10

10:                                               ; preds = %6
  %11 = and i32 %5, 20
  %.not = icmp eq i32 %11, 0
  br i1 %.not, label %13, label %12

12:                                               ; preds = %10
  tail call void (ptr, i32, ptr, ...) @php_error_docref(ptr noundef nonnull @.str.73, i32 noundef 8192, ptr noundef nonnull @.str.75) #16
  br label %13

13:                                               ; preds = %12, %10
  %14 = tail call i32 @OnUpdateString(ptr noundef %0, ptr noundef nonnull %1, ptr noundef %2, ptr noundef %3, ptr noundef %4, i32 noundef %5) #16
  br label %15

15:                                               ; preds = %6, %13
  %.0 = phi i32 [ 0, %13 ], [ -1, %6 ]
  ret i32 %.0
}